target datalayout = "e-m:e-p270:32:32-p271:32:32-p272:64:64-i64:64-i128:128-f80:128-n8:16:32:64-S128"
target triple = "x86_64-pc-linux-gnu"

%struct.CHKVAL = type { ptr, ptr }
%struct.QueryOperand = type { i8, i8, i8, i32, i32 }

; Function Attrs: nounwind uwtable
define internal i32 @checkcondition_arr(ptr noundef %0, ptr noundef %1, ptr noundef %2) #0 {
  %4 = alloca i32, align 4
  %5 = alloca ptr, align 8
  %6 = alloca ptr, align 8
  %7 = alloca ptr, align 8
  %8 = alloca ptr, align 8
  %9 = alloca ptr, align 8
  %10 = alloca ptr, align 8
  %11 = alloca i32, align 4
  store ptr %0, ptr %5, align 8
  store ptr %1, ptr %6, align 8
  store ptr %2, ptr %7, align 8
  call void @llvm.lifetime.start.p0(i64 8, ptr %8) #9
  %12 = load ptr, ptr %5, align 8
  %13 = getelementptr inbounds nuw %struct.CHKVAL, ptr %12, i32 0, i32 0
  %14 = load ptr, ptr %13, align 8
  store ptr %14, ptr %8, align 8
  call void @llvm.lifetime.start.p0(i64 8, ptr %9) #9
  %15 = load ptr, ptr %5, align 8
  %16 = getelementptr inbounds nuw %struct.CHKVAL, ptr %15, i32 0, i32 1
  %17 = load ptr, ptr %16, align 8
  store ptr %17, ptr %9, align 8
  call void @llvm.lifetime.start.p0(i64 8, ptr %10) #9
  %18 = load ptr, ptr %6, align 8
  %19 = getelementptr inbounds nuw %struct.QueryOperand, ptr %18, i32 0, i32 2
  %20 = load i8, ptr %19, align 2, !range !4, !noundef !5
  %21 = trunc i8 %20 to i1
  br i1 %21, label %22, label %23

22:                                               ; preds = %3
  store i32 2, ptr %4, align 4
  store i32 1, ptr %11, align 4
  br label %60

23:                                               ; preds = %3
  br label %24

24:                                               ; preds = %58, %23
  %25 = load ptr, ptr %8, align 8
  %26 = load ptr, ptr %9, align 8
  %27 = icmp ult ptr %25, %26
  br i1 %27, label %28, label %59

28:                                               ; preds = %24
  %29 = load ptr, ptr %8, align 8
  %30 = load ptr, ptr %9, align 8
  %31 = load ptr, ptr %8, align 8
  %32 = ptrtoint ptr %30 to i64
  %33 = ptrtoint ptr %31 to i64
  %34 = sub i64 %32, %33
  %35 = sdiv exact i64 %34, 4
  %36 = sdiv i64 %35, 2
  %37 = getelementptr inbounds i32, ptr %29, i64 %36
  store ptr %37, ptr %10, align 8
  %38 = load ptr, ptr %10, align 8
  %39 = load i32, ptr %38, align 4
  %40 = load ptr, ptr %6, align 8
  %41 = getelementptr inbounds nuw %struct.QueryOperand, ptr %40, i32 0, i32 3
  %42 = load i32, ptr %41, align 4
  %43 = icmp eq i32 %39, %42
  br i1 %43, label %44, label %45

44:                                               ; preds = %28
  store i32 2, ptr %4, align 4
  store i32 1, ptr %11, align 4
  br label %60

45:                                               ; preds = %28
  %46 = load ptr, ptr %10, align 8
  %47 = load i32, ptr %46, align 4
  %48 = load ptr, ptr %6, align 8
  %49 = getelementptr inbounds nuw %struct.QueryOperand, ptr %48, i32 0, i32 3
  %50 = load i32, ptr %49, align 4
  %51 = icmp slt i32 %47, %50
  br i1 %51, label %52, label %55

52:                                               ; preds = %45
  %53 = load ptr, ptr %10, align 8
  %54 = getelementptr inbounds i32, ptr %53, i64 1
  store ptr %54, ptr %8, align 8
  br label %57

55:                                               ; preds = %45
  %56 = load ptr, ptr %10, align 8
  store ptr %56, ptr %9, align 8
  br label %57

57:                                               ; preds = %55, %52
  br label %58

58:                                               ; preds = %57
  br label %24, !llvm.loop !13

59:                                               ; preds = %24
  store i32 0, ptr %4, align 4
  store i32 1, ptr %11, align 4
  br label %60

60:                                               ; preds = %59, %44, %22
  call void @llvm.lifetime.end.p0(i64 8, ptr %10) #9
  call void @llvm.lifetime.end.p0(i64 8, ptr %9) #9
  call void @llvm.lifetime.end.p0(i64 8, ptr %8) #9
  %61 = load i32, ptr %4, align 4
  ret i32 %61
}