; Function Attrs: nofree norecurse nosync nounwind memory(read, inaccessiblemem: none) uwtable
define internal range(i32 0, 3) i32 @checkcondition_arr(ptr noundef readonly captures(none) %0, ptr noundef readonly captures(none) %1, ptr readnone captures(none) %2) #6 {
  %4 = load ptr, ptr %0, align 8
  %5 = getelementptr inbounds nuw i8, ptr %0, i64 8
  %6 = load ptr, ptr %5, align 8
  %7 = getelementptr inbounds nuw i8, ptr %1, i64 2
  %8 = load i8, ptr %7, align 2, !range !6, !noundef !7
  %9 = trunc nuw i8 %8 to i1
  br i1 %9, label %.loopexit, label %.preheader

.preheader:                                       ; preds = %3
  %10 = icmp ult ptr %4, %6
  br i1 %10, label %.lr.ph, label %.loopexit

.lr.ph:                                           ; preds = %.preheader
  %11 = getelementptr inbounds nuw i8, ptr %1, i64 4
  %12 = load i32, ptr %11, align 4
  br label %13

13:                                               ; preds = %.lr.ph, %22
  %.01420 = phi ptr [ %6, %.lr.ph ], [ %.1, %22 ]
  %.01519 = phi ptr [ %4, %.lr.ph ], [ %.116, %22 ]
  %14 = ptrtoint ptr %.01420 to i64
  %15 = ptrtoint ptr %.01519 to i64
  %16 = sub i64 %14, %15
  %17 = ashr exact i64 %16, 2
  %18 = sdiv i64 %17, 2
  %19 = getelementptr inbounds i32, ptr %.01519, i64 %18
  %20 = load i32, ptr %19, align 4
  %21 = icmp eq i32 %20, %12
  br i1 %21, label %.loopexit, label %22

22:                                               ; preds = %13
  %23 = icmp slt i32 %20, %12
  %24 = getelementptr inbounds nuw i8, ptr %19, i64 4
  %.116 = select i1 %23, ptr %24, ptr %.01519
  %.1 = select i1 %23, ptr %.01420, ptr %19
  %25 = icmp ult ptr %.116, %.1
  br i1 %25, label %13, label %.loopexit, !llvm.loop !13

.loopexit:                                        ; preds = %13, %22, %.preheader, %3
  %.0 = phi i32 [ 2, %3 ], [ 0, %.preheader ], [ 2, %13 ], [ 0, %22 ]
  ret i32 %.0
}